target datalayout = "e-m:e-p270:32:32-p271:32:32-p272:64:64-i64:64-i128:128-f80:128-n8:16:32:64-S128"
target triple = "x86_64-pc-linux-gnu"

%struct.UConverter = type { ptr, ptr, ptr, ptr, ptr, ptr, ptr, i32, i8, i8, i8, i8, i8, [7 x i8], i32, i32, i32, i32, i8, i8, i8, i8, i8, i8, i8, i8, [8 x i8], [32 x i8], [2 x i16], [2 x i16], [32 x i16], i32, [19 x i16], [31 x i8], i8, i8, i8, i32 }
%struct.UConverterSharedData = type { i32, i32, ptr, ptr, i8, i8, ptr, i32, %struct.UConverterMBCSTable }
%struct.UConverterMBCSTable = type { i8, i8, i8, i32, ptr, ptr, ptr, ptr, ptr, ptr, [64 x i16], ptr, ptr, i32, i8, i8, i8, i16, i32, ptr, ptr, ptr, ptr }

; Function Attrs: inlinehint mustprogress uwtable
define internal void @_ZL18ucnv_extWriteFromUP10UConverterPKijPPcPKcPPiiP10UErrorCode(ptr noundef %0, ptr noundef %1, i32 noundef %2, ptr noundef %3, ptr noundef %4, ptr noundef %5, i32 noundef %6, ptr noundef %7) #2 {
  %9 = alloca ptr, align 8
  %10 = alloca ptr, align 8
  %11 = alloca i32, align 4
  %12 = alloca ptr, align 8
  %13 = alloca ptr, align 8
  %14 = alloca ptr, align 8
  %15 = alloca i32, align 4
  %16 = alloca ptr, align 8
  %17 = alloca [32 x i8], align 16
  %18 = alloca ptr, align 8
  %19 = alloca i32, align 4
  %20 = alloca i32, align 4
  %21 = alloca ptr, align 8
  %22 = alloca i8, align 1
  store ptr %0, ptr %9, align 8, !tbaa !3
  store ptr %1, ptr %10, align 8, !tbaa !8
  store i32 %2, ptr %11, align 4, !tbaa !10
  store ptr %3, ptr %12, align 8, !tbaa !12
  store ptr %4, ptr %13, align 8, !tbaa !15
  store ptr %5, ptr %14, align 8, !tbaa !21
  store i32 %6, ptr %15, align 4, !tbaa !10
  store ptr %7, ptr %16, align 8, !tbaa !24
  call void @llvm.lifetime.start.p0(i64 32, ptr %17) #7
  call void @llvm.lifetime.start.p0(i64 8, ptr %18) #7
  call void @llvm.lifetime.start.p0(i64 4, ptr %19) #7
  call void @llvm.lifetime.start.p0(i64 4, ptr %20) #7
  %23 = load i32, ptr %11, align 4, !tbaa !10
  %24 = lshr i32 %23, 24
  %25 = and i32 %24, 31
  store i32 %25, ptr %19, align 4, !tbaa !10
  %26 = load i32, ptr %11, align 4, !tbaa !10
  %27 = and i32 %26, 16777215
  store i32 %27, ptr %11, align 4, !tbaa !10
  %28 = load i32, ptr %19, align 4, !tbaa !10
  %29 = icmp sle i32 %28, 3
  br i1 %29, label %30, label %55

30:                                               ; preds = %8
  call void @llvm.lifetime.start.p0(i64 8, ptr %21) #7
  %31 = getelementptr inbounds [32 x i8], ptr %17, i64 0, i64 0
  %32 = getelementptr inbounds i8, ptr %31, i64 1
  store ptr %32, ptr %21, align 8, !tbaa !15
  %33 = load i32, ptr %19, align 4, !tbaa !10
  switch i32 %33, label %51 [
    i32 3, label %34
    i32 2, label %40
    i32 1, label %46
  ]

34:                                               ; preds = %30
  %35 = load i32, ptr %11, align 4, !tbaa !10
  %36 = lshr i32 %35, 16
  %37 = trunc i32 %36 to i8
  %38 = load ptr, ptr %21, align 8, !tbaa !15
  %39 = getelementptr inbounds nuw i8, ptr %38, i32 1
  store ptr %39, ptr %21, align 8, !tbaa !15
  store i8 %37, ptr %38, align 1, !tbaa !23
  br label %40

40:                                               ; preds = %30, %34
  %41 = load i32, ptr %11, align 4, !tbaa !10
  %42 = lshr i32 %41, 8
  %43 = trunc i32 %42 to i8
  %44 = load ptr, ptr %21, align 8, !tbaa !15
  %45 = getelementptr inbounds nuw i8, ptr %44, i32 1
  store ptr %45, ptr %21, align 8, !tbaa !15
  store i8 %43, ptr %44, align 1, !tbaa !23
  br label %46

46:                                               ; preds = %30, %40
  %47 = load i32, ptr %11, align 4, !tbaa !10
  %48 = trunc i32 %47 to i8
  %49 = load ptr, ptr %21, align 8, !tbaa !15
  %50 = getelementptr inbounds nuw i8, ptr %49, i32 1
  store ptr %50, ptr %21, align 8, !tbaa !15
  store i8 %48, ptr %49, align 1, !tbaa !23
  br label %51

51:                                               ; preds = %30, %46
  br label %52

52:                                               ; preds = %51
  %53 = getelementptr inbounds [32 x i8], ptr %17, i64 0, i64 0
  %54 = getelementptr inbounds i8, ptr %53, i64 1
  store ptr %54, ptr %18, align 8, !tbaa !15
  call void @llvm.lifetime.end.p0(i64 8, ptr %21) #7
  br label %65

55:                                               ; preds = %8
  %56 = load ptr, ptr %10, align 8, !tbaa !8
  %57 = load ptr, ptr %10, align 8, !tbaa !8
  %58 = getelementptr inbounds nuw i32, ptr %57, i64 8
  %59 = load i32, ptr %58, align 4, !tbaa !10
  %60 = sext i32 %59 to i64
  %61 = getelementptr inbounds i8, ptr %56, i64 %60
  %62 = load i32, ptr %11, align 4, !tbaa !10
  %63 = zext i32 %62 to i64
  %64 = getelementptr inbounds nuw i8, ptr %61, i64 %63
  store ptr %64, ptr %18, align 8, !tbaa !15
  br label %65

65:                                               ; preds = %55, %52
  %66 = load ptr, ptr %9, align 8, !tbaa !3
  %67 = getelementptr inbounds nuw %struct.UConverter, ptr %66, i32 0, i32 16
  %68 = load i32, ptr %67, align 8, !tbaa !63
  store i32 %68, ptr %20, align 4, !tbaa !10
  %69 = icmp ne i32 %68, 0
  br i1 %69, label %70, label %115

70:                                               ; preds = %65
  call void @llvm.lifetime.start.p0(i64 1, ptr %22) #7
  %71 = load i32, ptr %20, align 4, !tbaa !10
  %72 = icmp sgt i32 %71, 1
  br i1 %72, label %73, label %79

73:                                               ; preds = %70
  %74 = load i32, ptr %19, align 4, !tbaa !10
  %75 = icmp eq i32 %74, 1
  br i1 %75, label %76, label %79

76:                                               ; preds = %73
  store i8 15, ptr %22, align 1, !tbaa !23
  %77 = load ptr, ptr %9, align 8, !tbaa !3
  %78 = getelementptr inbounds nuw %struct.UConverter, ptr %77, i32 0, i32 16
  store i32 1, ptr %78, align 8, !tbaa !63
  br label %90

79:                                               ; preds = %73, %70
  %80 = load i32, ptr %20, align 4, !tbaa !10
  %81 = icmp eq i32 %80, 1
  br i1 %81, label %82, label %88

82:                                               ; preds = %79
  %83 = load i32, ptr %19, align 4, !tbaa !10
  %84 = icmp sgt i32 %83, 1
  br i1 %84, label %85, label %88

85:                                               ; preds = %82
  store i8 14, ptr %22, align 1, !tbaa !23
  %86 = load ptr, ptr %9, align 8, !tbaa !3
  %87 = getelementptr inbounds nuw %struct.UConverter, ptr %86, i32 0, i32 16
  store i32 2, ptr %87, align 8, !tbaa !63
  br label %89

88:                                               ; preds = %82, %79
  store i8 0, ptr %22, align 1, !tbaa !23
  br label %89

89:                                               ; preds = %88, %85
  br label %90

90:                                               ; preds = %89, %76
  %91 = load i8, ptr %22, align 1, !tbaa !23
  %92 = zext i8 %91 to i32
  %93 = icmp ne i32 %92, 0
  br i1 %93, label %94, label %114

94:                                               ; preds = %90
  %95 = load i8, ptr %22, align 1, !tbaa !23
  %96 = getelementptr inbounds [32 x i8], ptr %17, i64 0, i64 0
  store i8 %95, ptr %96, align 16, !tbaa !23
  %97 = load ptr, ptr %18, align 8, !tbaa !15
  %98 = getelementptr inbounds [32 x i8], ptr %17, i64 0, i64 0
  %99 = getelementptr inbounds i8, ptr %98, i64 1
  %100 = icmp ne ptr %97, %99
  br i1 %100, label %101, label %110

101:                                              ; preds = %94
  br label %102

102:                                              ; preds = %101
  %103 = getelementptr inbounds [32 x i8], ptr %17, i64 0, i64 0
  %104 = getelementptr inbounds i8, ptr %103, i64 1
  %105 = load ptr, ptr %18, align 8, !tbaa !15
  %106 = load i32, ptr %19, align 4, !tbaa !10
  %107 = sext i32 %106 to i64
  call void @llvm.memcpy.p0.p0.i64(ptr align 1 %104, ptr align 1 %105, i64 %107, i1 false)
  br label %108

108:                                              ; preds = %102
  br label %109

109:                                              ; preds = %108
  br label %110

110:                                              ; preds = %109, %94
  %111 = getelementptr inbounds [32 x i8], ptr %17, i64 0, i64 0
  store ptr %111, ptr %18, align 8, !tbaa !15
  %112 = load i32, ptr %19, align 4, !tbaa !10
  %113 = add nsw i32 %112, 1
  store i32 %113, ptr %19, align 4, !tbaa !10
  br label %114

114:                                              ; preds = %110, %90
  call void @llvm.lifetime.end.p0(i64 1, ptr %22) #7
  br label %115

115:                                              ; preds = %114, %65
  %116 = load ptr, ptr %9, align 8, !tbaa !3
  %117 = load ptr, ptr %18, align 8, !tbaa !15
  %118 = load i32, ptr %19, align 4, !tbaa !10
  %119 = load ptr, ptr %12, align 8, !tbaa !12
  %120 = load ptr, ptr %13, align 8, !tbaa !15
  %121 = load ptr, ptr %14, align 8, !tbaa !21
  %122 = load i32, ptr %15, align 4, !tbaa !10
  %123 = load ptr, ptr %16, align 8, !tbaa !24
  call void @ucnv_fromUWriteBytes_77(ptr noundef %116, ptr noundef %117, i32 noundef %118, ptr noundef %119, ptr noundef %120, ptr noundef %121, i32 noundef %122, ptr noundef %123)
  call void @llvm.lifetime.end.p0(i64 4, ptr %20) #7
  call void @llvm.lifetime.end.p0(i64 4, ptr %19) #7
  call void @llvm.lifetime.end.p0(i64 8, ptr %18) #7
  call void @llvm.lifetime.end.p0(i64 32, ptr %17) #7
  ret void
}

; Function Attrs: mustprogress uwtable
define signext i8 @ucnv_extInitialMatchFromU_77(ptr noundef %0, ptr noundef %1, i32 noundef %2, ptr noundef %3, ptr noundef %4, ptr noundef %5, ptr noundef %6, ptr noundef %7, i32 noundef %8, i8 noundef signext %9, ptr noundef %10) #0 {
  %12 = alloca i8, align 1
  %13 = alloca ptr, align 8
  %14 = alloca ptr, align 8
  %15 = alloca i32, align 4
  %16 = alloca ptr, align 8
  %17 = alloca ptr, align 8
  %18 = alloca ptr, align 8
  %19 = alloca ptr, align 8
  %20 = alloca ptr, align 8
  %21 = alloca i32, align 4
  %22 = alloca i8, align 1
  %23 = alloca ptr, align 8
  %24 = alloca i32, align 4
  %25 = alloca i32, align 4
  %26 = alloca i32, align 4
  %27 = alloca ptr, align 8
  %28 = alloca i32, align 4
  store ptr %0, ptr %13, align 8, !tbaa !3
  store ptr %1, ptr %14, align 8, !tbaa !8
  store i32 %2, ptr %15, align 4, !tbaa !10
  store ptr %3, ptr %16, align 8, !tbaa !17
  store ptr %4, ptr %17, align 8, !tbaa !19
  store ptr %5, ptr %18, align 8, !tbaa !12
  store ptr %6, ptr %19, align 8, !tbaa !15
  store ptr %7, ptr %20, align 8, !tbaa !21
  store i32 %8, ptr %21, align 4, !tbaa !10
  store i8 %9, ptr %22, align 1, !tbaa !23
  store ptr %10, ptr %23, align 8, !tbaa !24
  call void @llvm.lifetime.start.p0(i64 4, ptr %24) #7
  store i32 0, ptr %24, align 4, !tbaa !10
  call void @llvm.lifetime.start.p0(i64 4, ptr %25) #7
  %29 = load ptr, ptr %14, align 8, !tbaa !8
  %30 = load i32, ptr %15, align 4, !tbaa !10
  %31 = load ptr, ptr %16, align 8, !tbaa !17
  %32 = load ptr, ptr %31, align 8, !tbaa !19
  %33 = load ptr, ptr %17, align 8, !tbaa !19
  %34 = load ptr, ptr %16, align 8, !tbaa !17
  %35 = load ptr, ptr %34, align 8, !tbaa !19
  %36 = ptrtoint ptr %33 to i64
  %37 = ptrtoint ptr %35 to i64
  %38 = sub i64 %36, %37
  %39 = sdiv exact i64 %38, 2
  %40 = trunc i64 %39 to i32
  %41 = load ptr, ptr %13, align 8, !tbaa !3
  %42 = getelementptr inbounds nuw %struct.UConverter, ptr %41, i32 0, i32 11
  %43 = load i8, ptr %42, align 1, !tbaa !37
  %44 = load i8, ptr %22, align 1, !tbaa !23
  %45 = call noundef i32 @_ZL18ucnv_extMatchFromUPKiiPKDsiS2_iPjaa(ptr noundef %29, i32 noundef %30, ptr noundef null, i32 noundef 0, ptr noundef %32, i32 noundef %40, ptr noundef %24, i8 noundef signext %43, i8 noundef signext %44)
  store i32 %45, ptr %25, align 4, !tbaa !10
  %46 = load i32, ptr %25, align 4, !tbaa !10
  %47 = icmp sge i32 %46, 2
  br i1 %47, label %48, label %77

48:                                               ; preds = %11
  %49 = load i32, ptr %24, align 4, !tbaa !10
  %50 = lshr i32 %49, 24
  %51 = and i32 %50, 31
  %52 = icmp eq i32 %51, 1
  br i1 %52, label %53, label %62

53:                                               ; preds = %48
  %54 = load ptr, ptr %13, align 8, !tbaa !3
  %55 = getelementptr inbounds nuw %struct.UConverter, ptr %54, i32 0, i32 6
  %56 = load ptr, ptr %55, align 8, !tbaa !25
  %57 = getelementptr inbounds nuw %struct.UConverterSharedData, ptr %56, i32 0, i32 8
  %58 = getelementptr inbounds nuw %struct.UConverterMBCSTable, ptr %57, i32 0, i32 14
  %59 = load i8, ptr %58, align 4, !tbaa !29
  %60 = zext i8 %59 to i32
  %61 = icmp eq i32 %60, 219
  br i1 %61, label %77, label %62

62:                                               ; preds = %53, %48
  %63 = load i32, ptr %25, align 4, !tbaa !10
  %64 = sub nsw i32 %63, 2
  %65 = load ptr, ptr %16, align 8, !tbaa !17
  %66 = load ptr, ptr %65, align 8, !tbaa !19
  %67 = sext i32 %64 to i64
  %68 = getelementptr inbounds i16, ptr %66, i64 %67
  store ptr %68, ptr %65, align 8, !tbaa !19
  %69 = load ptr, ptr %13, align 8, !tbaa !3
  %70 = load ptr, ptr %14, align 8, !tbaa !8
  %71 = load i32, ptr %24, align 4, !tbaa !10
  %72 = load ptr, ptr %18, align 8, !tbaa !12
  %73 = load ptr, ptr %19, align 8, !tbaa !15
  %74 = load ptr, ptr %20, align 8, !tbaa !21
  %75 = load i32, ptr %21, align 4, !tbaa !10
  %76 = load ptr, ptr %23, align 8, !tbaa !24
  call void @_ZL18ucnv_extWriteFromUP10UConverterPKijPPcPKcPPiiP10UErrorCode(ptr noundef %69, ptr noundef %70, i32 noundef %71, ptr noundef %72, ptr noundef %73, ptr noundef %74, i32 noundef %75, ptr noundef %76)
  store i8 1, ptr %12, align 1
  store i32 1, ptr %26, align 4
  br label %119

77:                                               ; preds = %53, %11
  %78 = load i32, ptr %25, align 4, !tbaa !10
  %79 = icmp slt i32 %78, 0
  br i1 %79, label %80, label %112

80:                                               ; preds = %77
  call void @llvm.lifetime.start.p0(i64 8, ptr %27) #7
  call void @llvm.lifetime.start.p0(i64 4, ptr %28) #7
  %81 = load i32, ptr %15, align 4, !tbaa !10
  %82 = load ptr, ptr %13, align 8, !tbaa !3
  %83 = getelementptr inbounds nuw %struct.UConverter, ptr %82, i32 0, i32 31
  store i32 %81, ptr %83, align 8, !tbaa !55
  %84 = load ptr, ptr %16, align 8, !tbaa !17
  %85 = load ptr, ptr %84, align 8, !tbaa !19
  store ptr %85, ptr %27, align 8, !tbaa !19
  %86 = load i32, ptr %25, align 4, !tbaa !10
  %87 = sub nsw i32 0, %86
  %88 = sub nsw i32 %87, 2
  store i32 %88, ptr %25, align 4, !tbaa !10
  store i32 0, ptr %28, align 4, !tbaa !10
  br label %89

89:                                               ; preds = %102, %80
  %90 = load i32, ptr %28, align 4, !tbaa !10
  %91 = load i32, ptr %25, align 4, !tbaa !10
  %92 = icmp slt i32 %90, %91
  br i1 %92, label %93, label %105

93:                                               ; preds = %89
  %94 = load ptr, ptr %27, align 8, !tbaa !19
  %95 = getelementptr inbounds nuw i16, ptr %94, i32 1
  store ptr %95, ptr %27, align 8, !tbaa !19
  %96 = load i16, ptr %94, align 2, !tbaa !56
  %97 = load ptr, ptr %13, align 8, !tbaa !3
  %98 = getelementptr inbounds nuw %struct.UConverter, ptr %97, i32 0, i32 32
  %99 = load i32, ptr %28, align 4, !tbaa !10
  %100 = sext i32 %99 to i64
  %101 = getelementptr inbounds [19 x i16], ptr %98, i64 0, i64 %100
  store i16 %96, ptr %101, align 2, !tbaa !56
  br label %102

102:                                              ; preds = %93
  %103 = load i32, ptr %28, align 4, !tbaa !10
  %104 = add nsw i32 %103, 1
  store i32 %104, ptr %28, align 4, !tbaa !10
  br label %89, !llvm.loop !57

105:                                              ; preds = %89
  %106 = load ptr, ptr %27, align 8, !tbaa !19
  %107 = load ptr, ptr %16, align 8, !tbaa !17
  store ptr %106, ptr %107, align 8, !tbaa !19
  %108 = load i32, ptr %25, align 4, !tbaa !10
  %109 = trunc i32 %108 to i8
  %110 = load ptr, ptr %13, align 8, !tbaa !3
  %111 = getelementptr inbounds nuw %struct.UConverter, ptr %110, i32 0, i32 34
  store i8 %109, ptr %111, align 1, !tbaa !58
  store i8 1, ptr %12, align 1
  store i32 1, ptr %26, align 4
  call void @llvm.lifetime.end.p0(i64 4, ptr %28) #7
  call void @llvm.lifetime.end.p0(i64 8, ptr %27) #7
  br label %119

112:                                              ; preds = %77
  %113 = load i32, ptr %25, align 4, !tbaa !10
  %114 = icmp eq i32 %113, 1
  br i1 %114, label %115, label %118

115:                                              ; preds = %112
  %116 = load ptr, ptr %13, align 8, !tbaa !3
  %117 = getelementptr inbounds nuw %struct.UConverter, ptr %116, i32 0, i32 25
  store i8 1, ptr %117, align 1, !tbaa !59
  store i8 0, ptr %12, align 1
  store i32 1, ptr %26, align 4
  br label %119

118:                                              ; preds = %112
  store i8 0, ptr %12, align 1
  store i32 1, ptr %26, align 4
  br label %119

119:                                              ; preds = %118, %115, %105, %62
  call void @llvm.lifetime.end.p0(i64 4, ptr %25) #7
  call void @llvm.lifetime.end.p0(i64 4, ptr %24) #7
  %120 = load i8, ptr %12, align 1
  ret i8 %120
}