; Function Attrs: mustprogress uwtable
define signext range(i8 0, 2) i8 @ucnv_extInitialMatchFromU_77(ptr noundef %0, ptr noundef %1, i32 noundef %2, ptr noundef captures(none) %3, ptr noundef %4, ptr noundef %5, ptr noundef %6, ptr noundef %7, i32 noundef %8, i8 noundef signext %9, ptr noundef %10) local_unnamed_addr #0 {
  %12 = alloca [32 x i8], align 16
  %13 = alloca i32, align 4
  call void @llvm.lifetime.start.p0(i64 4, ptr nonnull %13) #7
  store i32 0, ptr %13, align 4, !tbaa !3
  %14 = load ptr, ptr %3, align 8, !tbaa !44
  %15 = ptrtoint ptr %4 to i64
  %16 = ptrtoint ptr %14 to i64
  %17 = sub i64 %15, %16
  %18 = lshr exact i64 %17, 1
  %19 = trunc i64 %18 to i32
  %20 = getelementptr inbounds nuw i8, ptr %0, i64 63
  %21 = load i8, ptr %20, align 1, !tbaa !45
  %22 = call fastcc noundef i32 @_ZL18ucnv_extMatchFromUPKiiPKDsiS2_iPjaa(ptr noundef %1, i32 noundef %2, ptr noundef null, i32 noundef 0, ptr noundef %14, i32 noundef %19, ptr noundef %13, i8 noundef signext %21, i8 noundef signext %9)
  %23 = icmp sgt i32 %22, 1
  br i1 %23, label %24, label %76

24:                                               ; preds = %11
  %25 = load i32, ptr %13, align 4, !tbaa !3
  %26 = and i32 %25, 520093696
  %27 = icmp eq i32 %26, 16777216
  br i1 %27, label %28, label %34

28:                                               ; preds = %24
  %29 = getelementptr inbounds nuw i8, ptr %0, i64 48
  %30 = load ptr, ptr %29, align 8, !tbaa !7
  %31 = getelementptr inbounds nuw i8, ptr %30, i64 252
  %32 = load i8, ptr %31, align 4, !tbaa !13
  %33 = icmp eq i8 %32, -37
  br i1 %33, label %.thread39, label %34

34:                                               ; preds = %28, %24
  %35 = zext nneg i32 %22 to i64
  %36 = getelementptr i16, ptr %14, i64 %35
  %37 = getelementptr i8, ptr %36, i64 -4
  store ptr %37, ptr %3, align 8, !tbaa !44
  call void @llvm.lifetime.start.p0(i64 32, ptr nonnull %12) #7
  %38 = lshr i32 %25, 24
  %39 = and i32 %38, 31
  %40 = icmp samesign ult i32 %39, 4
  br i1 %40, label %41, label %53

41:                                               ; preds = %34
  %42 = getelementptr inbounds nuw i8, ptr %12, i64 1
  switch i32 %39, label %61 [
    i32 3, label %43
    i32 2, label %47
    i32 1, label %51
  ]

43:                                               ; preds = %41
  %44 = lshr i32 %25, 16
  %45 = trunc i32 %44 to i8
  %46 = getelementptr inbounds nuw i8, ptr %12, i64 2
  store i8 %45, ptr %42, align 1, !tbaa !24
  br label %47

47:                                               ; preds = %43, %41
  %.036.i = phi ptr [ %42, %41 ], [ %46, %43 ]
  %48 = lshr i32 %25, 8
  %49 = trunc i32 %48 to i8
  %50 = getelementptr inbounds nuw i8, ptr %.036.i, i64 1
  store i8 %49, ptr %.036.i, align 1, !tbaa !24
  br label %51

51:                                               ; preds = %47, %41
  %.1.i = phi ptr [ %42, %41 ], [ %50, %47 ]
  %52 = trunc i32 %25 to i8
  store i8 %52, ptr %.1.i, align 1, !tbaa !24
  br label %61

53:                                               ; preds = %34
  %54 = and i32 %25, 16777215
  %55 = getelementptr inbounds nuw i8, ptr %1, i64 32
  %56 = load i32, ptr %55, align 4, !tbaa !3
  %57 = sext i32 %56 to i64
  %58 = getelementptr inbounds i8, ptr %1, i64 %57
  %59 = zext nneg i32 %54 to i64
  %60 = getelementptr inbounds nuw i8, ptr %58, i64 %59
  br label %61

61:                                               ; preds = %53, %51, %41
  %.039.i = phi ptr [ %60, %53 ], [ %42, %41 ], [ %42, %51 ]
  %62 = getelementptr inbounds nuw i8, ptr %0, i64 80
  %63 = load i32, ptr %62, align 8, !tbaa !46
  %.not.i = icmp eq i32 %63, 0
  br i1 %.not.i, label %_ZL18ucnv_extWriteFromUP10UConverterPKijPPcPKcPPiiP10UErrorCode.exit, label %64

64:                                               ; preds = %61
  %65 = icmp sgt i32 %63, 1
  %66 = icmp eq i32 %39, 1
  %or.cond.i = and i1 %66, %65
  br i1 %or.cond.i, label %70, label %67

67:                                               ; preds = %64
  %68 = icmp eq i32 %63, 1
  %69 = icmp samesign ugt i32 %39, 1
  %or.cond3.i = select i1 %68, i1 %69, i1 false
  br i1 %or.cond3.i, label %70, label %_ZL18ucnv_extWriteFromUP10UConverterPKijPPcPKcPPiiP10UErrorCode.exit

70:                                               ; preds = %67, %64
  %storemerge.i = phi i32 [ 1, %64 ], [ 2, %67 ]
  %.0.ph.i = phi i8 [ 15, %64 ], [ 14, %67 ]
  store i32 %storemerge.i, ptr %62, align 8, !tbaa !46
  store i8 %.0.ph.i, ptr %12, align 16, !tbaa !24
  %71 = getelementptr inbounds nuw i8, ptr %12, i64 1
  %.not45.i = icmp eq ptr %.039.i, %71
  br i1 %.not45.i, label %74, label %72

72:                                               ; preds = %70
  %73 = zext nneg i32 %39 to i64
  call void @llvm.memcpy.p0.p0.i64(ptr nonnull align 1 %71, ptr nonnull align 1 %.039.i, i64 %73, i1 false)
  br label %74

74:                                               ; preds = %72, %70
  %75 = add nuw nsw i32 %39, 1
  br label %_ZL18ucnv_extWriteFromUP10UConverterPKijPPcPKcPPiiP10UErrorCode.exit

_ZL18ucnv_extWriteFromUP10UConverterPKijPPcPKcPPiiP10UErrorCode.exit: ; preds = %61, %67, %74
  %.140.i = phi ptr [ %.039.i, %61 ], [ %12, %74 ], [ %.039.i, %67 ]
  %.037.i = phi i32 [ %39, %61 ], [ %75, %74 ], [ %39, %67 ]
  call void @ucnv_fromUWriteBytes_77(ptr noundef nonnull %0, ptr noundef nonnull %.140.i, i32 noundef %.037.i, ptr noundef %5, ptr noundef %6, ptr noundef %7, i32 noundef %8, ptr noundef %10)
  call void @llvm.lifetime.end.p0(i64 32, ptr nonnull %12) #7
  br label %.thread39

76:                                               ; preds = %11
  %77 = icmp slt i32 %22, 0
  br i1 %77, label %78, label %89

78:                                               ; preds = %76
  %79 = getelementptr inbounds nuw i8, ptr %0, i64 208
  store i32 %2, ptr %79, align 8, !tbaa !47
  %80 = sub nsw i32 -2, %22
  %81 = icmp samesign ult i32 %22, -2
  br i1 %81, label %.lr.ph, label %._crit_edge

.lr.ph:                                           ; preds = %78
  %82 = getelementptr inbounds nuw i8, ptr %0, i64 212
  %wide.trip.count = zext i32 %80 to i64
  br label %83

83:                                               ; preds = %.lr.ph, %83
  %indvars.iv = phi i64 [ 0, %.lr.ph ], [ %indvars.iv.next, %83 ]
  %.03540 = phi ptr [ %14, %.lr.ph ], [ %84, %83 ]
  %84 = getelementptr inbounds nuw i8, ptr %.03540, i64 2
  %85 = load i16, ptr %.03540, align 2, !tbaa !48
  %86 = getelementptr inbounds nuw [19 x i16], ptr %82, i64 0, i64 %indvars.iv
  store i16 %85, ptr %86, align 2, !tbaa !48
  %indvars.iv.next = add nuw nsw i64 %indvars.iv, 1
  %exitcond.not = icmp eq i64 %indvars.iv.next, %wide.trip.count
  br i1 %exitcond.not, label %._crit_edge, label %83, !llvm.loop !49

._crit_edge:                                      ; preds = %83, %78
  %.035.lcssa = phi ptr [ %14, %78 ], [ %84, %83 ]
  store ptr %.035.lcssa, ptr %3, align 8, !tbaa !44
  %87 = trunc i32 %80 to i8
  %88 = getelementptr inbounds nuw i8, ptr %0, i64 281
  store i8 %87, ptr %88, align 1, !tbaa !50
  br label %.thread39

89:                                               ; preds = %76
  %90 = icmp eq i32 %22, 1
  br i1 %90, label %91, label %.thread39

91:                                               ; preds = %89
  %92 = getelementptr inbounds nuw i8, ptr %0, i64 95
  store i8 1, ptr %92, align 1, !tbaa !51
  br label %.thread39

.thread39:                                        ; preds = %28, %89, %91, %._crit_edge, %_ZL18ucnv_extWriteFromUP10UConverterPKijPPcPKcPPiiP10UErrorCode.exit
  %.036 = phi i8 [ 1, %._crit_edge ], [ 0, %91 ], [ 1, %_ZL18ucnv_extWriteFromUP10UConverterPKijPPcPKcPPiiP10UErrorCode.exit ], [ 0, %89 ], [ 0, %28 ]
  call void @llvm.lifetime.end.p0(i64 4, ptr nonnull %13) #7
  ret i8 %.036
}